target datalayout = "e-m:e-p270:32:32-p271:32:32-p272:64:64-i64:64-i128:128-f80:128-n8:16:32:64-S128"
target triple = "x86_64-pc-linux-gnu"

%struct.Hop_Obj_t_ = type { %union.anon, %union.anon.0, ptr, ptr, i32, i32 }
%union.anon = type { ptr }
%union.anon.0 = type { ptr }
%struct.Vec_Ptr_t_ = type { i32, i32, ptr }
%struct.Hop_Man_t_ = type { ptr, ptr, ptr, ptr, %struct.Hop_Obj_t_, [6 x i32], i32, i32, ptr, i32, ptr, i32, i32, i32, ptr, ptr, ptr, i64, i64 }

@.str = private unnamed_addr constant [51 x i8] c"Hop_Compose(): The PI variable %d is not defined.\0A\00", align 1

; Function Attrs: inlinehint nounwind uwtable
define internal ptr @Vec_PtrEntry(ptr noundef %0, i32 noundef %1) #1 {
  %3 = alloca ptr, align 8
  %4 = alloca i32, align 4
  store ptr %0, ptr %3, align 8, !tbaa !8
  store i32 %1, ptr %4, align 4, !tbaa !21
  %5 = load ptr, ptr %3, align 8, !tbaa !8
  %6 = getelementptr inbounds nuw %struct.Vec_Ptr_t_, ptr %5, i32 0, i32 2
  %7 = load ptr, ptr %6, align 8, !tbaa !18
  %8 = load i32, ptr %4, align 4, !tbaa !21
  %9 = sext i32 %8 to i64
  %10 = getelementptr inbounds ptr, ptr %7, i64 %9
  %11 = load ptr, ptr %10, align 8, !tbaa !14
  ret ptr %11
}

; Function Attrs: inlinehint nounwind uwtable
define internal ptr @Hop_NotCond(ptr noundef %0, i32 noundef %1) #1 {
  %3 = alloca ptr, align 8
  %4 = alloca i32, align 4
  store ptr %0, ptr %3, align 8, !tbaa !3
  store i32 %1, ptr %4, align 4, !tbaa !21
  %5 = load ptr, ptr %3, align 8, !tbaa !3
  %6 = ptrtoint ptr %5 to i64
  %7 = load i32, ptr %4, align 4, !tbaa !21
  %8 = sext i32 %7 to i64
  %9 = xor i64 %6, %8
  %10 = inttoptr i64 %9 to ptr
  ret ptr %10
}

; Function Attrs: inlinehint nounwind uwtable
define internal i32 @Hop_IsComplement(ptr noundef %0) #1 {
  %2 = alloca ptr, align 8
  store ptr %0, ptr %2, align 8, !tbaa !3
  %3 = load ptr, ptr %2, align 8, !tbaa !3
  %4 = ptrtoint ptr %3 to i64
  %5 = and i64 %4, 1
  %6 = trunc i64 %5 to i32
  ret i32 %6
}

; Function Attrs: inlinehint nounwind uwtable
define internal ptr @Hop_ManPi(ptr noundef %0, i32 noundef %1) #1 {
  %3 = alloca ptr, align 8
  %4 = alloca i32, align 4
  store ptr %0, ptr %3, align 8, !tbaa !19
  store i32 %1, ptr %4, align 4, !tbaa !21
  %5 = load ptr, ptr %3, align 8, !tbaa !19
  %6 = getelementptr inbounds nuw %struct.Hop_Man_t_, ptr %5, i32 0, i32 0
  %7 = load ptr, ptr %6, align 8, !tbaa !32
  %8 = load i32, ptr %4, align 4, !tbaa !21
  %9 = call ptr @Vec_PtrEntry(ptr noundef %7, i32 noundef %8)
  ret ptr %9
}

; Function Attrs: inlinehint nounwind uwtable
define internal ptr @Hop_Regular(ptr noundef %0) #1 {
  %2 = alloca ptr, align 8
  store ptr %0, ptr %2, align 8, !tbaa !3
  %3 = load ptr, ptr %2, align 8, !tbaa !3
  %4 = ptrtoint ptr %3 to i64
  %5 = and i64 %4, -2
  %6 = inttoptr i64 %5 to ptr
  ret ptr %6
}

; Function Attrs: inlinehint nounwind uwtable
define internal i32 @Hop_ManPiNum(ptr noundef %0) #1 {
  %2 = alloca ptr, align 8
  store ptr %0, ptr %2, align 8, !tbaa !19
  %3 = load ptr, ptr %2, align 8, !tbaa !19
  %4 = getelementptr inbounds nuw %struct.Hop_Man_t_, ptr %3, i32 0, i32 5
  %5 = getelementptr inbounds [6 x i32], ptr %4, i64 0, i64 2
  %6 = load i32, ptr %5, align 8, !tbaa !21
  ret i32 %6
}

; Function Attrs: nounwind uwtable
define ptr @Hop_Compose(ptr noundef %0, ptr noundef %1, ptr noundef %2, i32 noundef %3) #0 {
  %5 = alloca ptr, align 8
  %6 = alloca ptr, align 8
  %7 = alloca ptr, align 8
  %8 = alloca ptr, align 8
  %9 = alloca i32, align 4
  store ptr %0, ptr %6, align 8, !tbaa !19
  store ptr %1, ptr %7, align 8, !tbaa !3
  store ptr %2, ptr %8, align 8, !tbaa !3
  store i32 %3, ptr %9, align 4, !tbaa !21
  %10 = load i32, ptr %9, align 4, !tbaa !21
  %11 = load ptr, ptr %6, align 8, !tbaa !19
  %12 = call i32 @Hop_ManPiNum(ptr noundef %11)
  %13 = icmp sge i32 %10, %12
  br i1 %13, label %14, label %17

14:                                               ; preds = %4
  %15 = load i32, ptr %9, align 4, !tbaa !21
  %16 = call i32 (ptr, ...) @printf(ptr noundef @.str, i32 noundef %15)
  store ptr null, ptr %5, align 8
  br label %34

17:                                               ; preds = %4
  %18 = load ptr, ptr %6, align 8, !tbaa !19
  %19 = load ptr, ptr %7, align 8, !tbaa !3
  %20 = call ptr @Hop_Regular(ptr noundef %19)
  %21 = load ptr, ptr %8, align 8, !tbaa !3
  %22 = load ptr, ptr %6, align 8, !tbaa !19
  %23 = load i32, ptr %9, align 4, !tbaa !21
  %24 = call ptr @Hop_ManPi(ptr noundef %22, i32 noundef %23)
  call void @Hop_Compose_rec(ptr noundef %18, ptr noundef %20, ptr noundef %21, ptr noundef %24)
  %25 = load ptr, ptr %7, align 8, !tbaa !3
  %26 = call ptr @Hop_Regular(ptr noundef %25)
  call void @Hop_ConeUnmark_rec(ptr noundef %26)
  %27 = load ptr, ptr %7, align 8, !tbaa !3
  %28 = call ptr @Hop_Regular(ptr noundef %27)
  %29 = getelementptr inbounds nuw %struct.Hop_Obj_t_, ptr %28, i32 0, i32 0
  %30 = load ptr, ptr %29, align 8, !tbaa !31
  %31 = load ptr, ptr %7, align 8, !tbaa !3
  %32 = call i32 @Hop_IsComplement(ptr noundef %31)
  %33 = call ptr @Hop_NotCond(ptr noundef %30, i32 noundef %32)
  store ptr %33, ptr %5, align 8
  br label %34

34:                                               ; preds = %17, %14
  %35 = load ptr, ptr %5, align 8
  ret ptr %35
}