; Function Attrs: nounwind uwtable
define ptr @Hop_Compose(ptr noundef %0, ptr noundef %1, ptr noundef %2, i32 noundef %3) local_unnamed_addr #0 {
  %5 = getelementptr i8, ptr %0, i64 80
  %.val = load i32, ptr %5, align 8, !tbaa !16
  %.not = icmp slt i32 %3, %.val
  br i1 %.not, label %8, label %6

6:                                                ; preds = %4
  %7 = tail call i32 (ptr, ...) @printf(ptr noundef nonnull dereferenceable(1) @.str, i32 noundef %3)
  br label %21

8:                                                ; preds = %4
  %9 = ptrtoint ptr %1 to i64
  %10 = and i64 %9, -2
  %11 = inttoptr i64 %10 to ptr
  %.val12 = load ptr, ptr %0, align 8, !tbaa !30
  %12 = getelementptr i8, ptr %.val12, i64 8
  %.val12.val = load ptr, ptr %12, align 8, !tbaa !14
  %13 = sext i32 %3 to i64
  %14 = getelementptr inbounds ptr, ptr %.val12.val, i64 %13
  %15 = load ptr, ptr %14, align 8, !tbaa !15
  tail call void @Hop_Compose_rec(ptr noundef nonnull %0, ptr noundef %11, ptr noundef %2, ptr noundef %15)
  tail call void @Hop_ConeUnmark_rec(ptr noundef %11)
  %16 = load ptr, ptr %11, align 8, !tbaa !29
  %17 = and i64 %9, 1
  %18 = ptrtoint ptr %16 to i64
  %19 = xor i64 %17, %18
  %20 = inttoptr i64 %19 to ptr
  br label %21

21:                                               ; preds = %8, %6
  %.0 = phi ptr [ null, %6 ], [ %20, %8 ]
  ret ptr %.0
}